; ModuleID = '25/1173.cpp'
source_filename = "25/1173.cpp"
target datalayout = "e-m:e-p270:32:32-p271:32:32-p272:64:64-i64:64-f80:128-n8:16:32:64-S128"
target triple = "x86_64-pc-linux-gnu"

%"class.std::ios_base::Init" = type { i8 }
%"class.std::basic_istream" = type { i32 (...)**, i64, %"class.std::basic_ios" }
%"class.std::basic_ios" = type { %"class.std::ios_base", %"class.std::basic_ostream"*, i8, i8, %"class.std::basic_streambuf"*, %"class.std::ctype"*, %"class.std::num_put"*, %"class.std::num_get"* }
%"class.std::ios_base" = type { i32 (...)**, i64, i64, i32, i32, i32, %"struct.std::ios_base::_Callback_list"*, %"struct.std::ios_base::_Words", [8 x %"struct.std::ios_base::_Words"], i32, %"struct.std::ios_base::_Words"*, %"class.std::locale" }
%"struct.std::ios_base::_Callback_list" = type { %"struct.std::ios_base::_Callback_list"*, void (i32, %"class.std::ios_base"*, i32)*, i32, i32 }
%"struct.std::ios_base::_Words" = type { i8*, i64 }
%"class.std::locale" = type { %"class.std::locale::_Impl"* }
%"class.std::locale::_Impl" = type { i32, %"class.std::locale::facet"**, i64, %"class.std::locale::facet"**, i8** }
%"class.std::locale::facet" = type <{ i32 (...)**, i32, [4 x i8] }>
%"class.std::basic_ostream" = type { i32 (...)**, %"class.std::basic_ios" }
%"class.std::basic_streambuf" = type { i32 (...)**, i8*, i8*, i8*, i8*, i8*, i8*, %"class.std::locale" }
%"class.std::ctype" = type <{ %"class.std::locale::facet.base", [4 x i8], %struct.__locale_struct*, i8, [7 x i8], i32*, i32*, i16*, i8, [256 x i8], [256 x i8], i8, [6 x i8] }>
%"class.std::locale::facet.base" = type <{ i32 (...)**, i32 }>
%struct.__locale_struct = type { [13 x %struct.__locale_data*], i16*, i32*, i32*, [13 x i8*] }
%struct.__locale_data = type opaque
%"class.std::num_put" = type { %"class.std::locale::facet.base", [4 x i8] }
%"class.std::num_get" = type { %"class.std::locale::facet.base", [4 x i8] }

@_ZStL8__ioinit = internal global %"class.std::ios_base::Init" zeroinitializer, align 1
@__dso_handle = external hidden global i8
@_ZSt3cin = external dso_local global %"class.std::basic_istream", align 8
@_ZSt4cout = external dso_local global %"class.std::basic_ostream", align 8
@llvm.global_ctors = appending global [1 x { i32, void ()*, i8* }] [{ i32, void ()*, i8* } { i32 65535, void ()* @_GLOBAL__sub_I_1173.cpp, i8* null }]

; Function Attrs: noinline uwtable
define internal void @__cxx_global_var_init() #0 section ".text.startup" {
  call void @_ZNSt8ios_base4InitC1Ev(%"class.std::ios_base::Init"* @_ZStL8__ioinit)
  %1 = call i32 @__cxa_atexit(void (i8*)* bitcast (void (%"class.std::ios_base::Init"*)* @_ZNSt8ios_base4InitD1Ev to void (i8*)*), i8* getelementptr inbounds (%"class.std::ios_base::Init", %"class.std::ios_base::Init"* @_ZStL8__ioinit, i32 0, i32 0), i8* @__dso_handle) #3
  ret void
}

declare dso_local void @_ZNSt8ios_base4InitC1Ev(%"class.std::ios_base::Init"*) unnamed_addr #1

; Function Attrs: nounwind
declare dso_local void @_ZNSt8ios_base4InitD1Ev(%"class.std::ios_base::Init"*) unnamed_addr #2

; Function Attrs: nounwind
declare dso_local i32 @__cxa_atexit(void (i8*)*, i8*, i8*) #3

; Function Attrs: noinline norecurse uwtable
define dso_local i32 @main() #4 {
  %1 = alloca i32, align 4
  %2 = alloca [120 x i32], align 16
  %3 = alloca i32, align 4
  %4 = alloca i32, align 4
  store i32 0, i32* %1, align 4
  %5 = bitcast [120 x i32]* %2 to i8*
  call void @llvm.memset.p0i8.i64(i8* align 16 %5, i8 0, i64 480, i1 false)
  %6 = getelementptr inbounds [120 x i32], [120 x i32]* %2, i64 0, i64 0
  store i32 1, i32* %6, align 16
  %7 = call dereferenceable(280) %"class.std::basic_istream"* @_ZNSirsERi(%"class.std::basic_istream"* @_ZSt3cin, i32* dereferenceable(4) %3)
  br label %8

8:                                                ; preds = %57, %0
  %9 = load i32, i32* %3, align 4
  %10 = add nsw i32 %9, -1
  store i32 %10, i32* %3, align 4
  %11 = icmp ne i32 %9, 0
  br i1 %11, label %12, label %58

12:                                               ; preds = %8
  store i32 0, i32* %4, align 4
  br label %13

13:                                               ; preds = %25, %12
  %14 = load i32, i32* %4, align 4
  %15 = icmp slt i32 %14, 100
  br i1 %15, label %16, label %28

16:                                               ; preds = %13
  %17 = load i32, i32* %4, align 4
  %18 = sext i32 %17 to i64
  %19 = getelementptr inbounds [120 x i32], [120 x i32]* %2, i64 0, i64 %18
  %20 = load i32, i32* %19, align 4
  %21 = mul nsw i32 %20, 2
  %22 = load i32, i32* %4, align 4
  %23 = sext i32 %22 to i64
  %24 = getelementptr inbounds [120 x i32], [120 x i32]* %2, i64 0, i64 %23
  store i32 %21, i32* %24, align 4
  br label %25

25:                                               ; preds = %16
  %26 = load i32, i32* %4, align 4
  %27 = add nsw i32 %26, 1
  store i32 %27, i32* %4, align 4
  br label %13

28:                                               ; preds = %13
  store i32 0, i32* %4, align 4
  br label %29

29:                                               ; preds = %54, %28
  %30 = load i32, i32* %4, align 4
  %31 = icmp slt i32 %30, 100
  br i1 %31, label %32, label %57

32:                                               ; preds = %29
  %33 = load i32, i32* %4, align 4
  %34 = sext i32 %33 to i64
  %35 = getelementptr inbounds [120 x i32], [120 x i32]* %2, i64 0, i64 %34
  %36 = load i32, i32* %35, align 4
  %37 = icmp sgt i32 %36, 9
  br i1 %37, label %38, label %53

38:                                               ; preds = %32
  %39 = load i32, i32* %4, align 4
  %40 = add nsw i32 %39, 1
  %41 = sext i32 %40 to i64
  %42 = getelementptr inbounds [120 x i32], [120 x i32]* %2, i64 0, i64 %41
  %43 = load i32, i32* %42, align 4
  %44 = add nsw i32 %43, 1
  store i32 %44, i32* %42, align 4
  %45 = load i32, i32* %4, align 4
  %46 = sext i32 %45 to i64
  %47 = getelementptr inbounds [120 x i32], [120 x i32]* %2, i64 0, i64 %46
  %48 = load i32, i32* %47, align 4
  %49 = srem i32 %48, 10
  %50 = load i32, i32* %4, align 4
  %51 = sext i32 %50 to i64
  %52 = getelementptr inbounds [120 x i32], [120 x i32]* %2, i64 0, i64 %51
  store i32 %49, i32* %52, align 4
  br label %53

53:                                               ; preds = %38, %32
  br label %54

54:                                               ; preds = %53
  %55 = load i32, i32* %4, align 4
  %56 = add nsw i32 %55, 1
  store i32 %56, i32* %4, align 4
  br label %29

57:                                               ; preds = %29
  br label %8

58:                                               ; preds = %8
  store i32 100, i32* %4, align 4
  br label %59

59:                                               ; preds = %70, %58
  %60 = load i32, i32* %4, align 4
  %61 = icmp sge i32 %60, 0
  br i1 %61, label %62, label %73

62:                                               ; preds = %59
  %63 = load i32, i32* %4, align 4
  %64 = sext i32 %63 to i64
  %65 = getelementptr inbounds [120 x i32], [120 x i32]* %2, i64 0, i64 %64
  %66 = load i32, i32* %65, align 4
  %67 = icmp ne i32 %66, 0
  br i1 %67, label %68, label %69

68:                                               ; preds = %62
  br label %73

69:                                               ; preds = %62
  br label %70

70:                                               ; preds = %69
  %71 = load i32, i32* %4, align 4
  %72 = add nsw i32 %71, -1
  store i32 %72, i32* %4, align 4
  br label %59

73:                                               ; preds = %68, %59
  br label %74

74:                                               ; preds = %83, %73
  %75 = load i32, i32* %4, align 4
  %76 = icmp sge i32 %75, 0
  br i1 %76, label %77, label %86

77:                                               ; preds = %74
  %78 = load i32, i32* %4, align 4
  %79 = sext i32 %78 to i64
  %80 = getelementptr inbounds [120 x i32], [120 x i32]* %2, i64 0, i64 %79
  %81 = load i32, i32* %80, align 4
  %82 = call dereferenceable(272) %"class.std::basic_ostream"* @_ZNSolsEi(%"class.std::basic_ostream"* @_ZSt4cout, i32 %81)
  br label %83

83:                                               ; preds = %77
  %84 = load i32, i32* %4, align 4
  %85 = add nsw i32 %84, -1
  store i32 %85, i32* %4, align 4
  br label %74

86:                                               ; preds = %74
  ret i32 0
}

; Function Attrs: argmemonly nounwind willreturn
declare void @llvm.memset.p0i8.i64(i8* nocapture writeonly, i8, i64, i1 immarg) #5

declare dso_local dereferenceable(280) %"class.std::basic_istream"* @_ZNSirsERi(%"class.std::basic_istream"*, i32* dereferenceable(4)) #1

declare dso_local dereferenceable(272) %"class.std::basic_ostream"* @_ZNSolsEi(%"class.std::basic_ostream"*, i32) #1

; Function Attrs: noinline uwtable
define internal void @_GLOBAL__sub_I_1173.cpp() #0 section ".text.startup" {
  call void @__cxx_global_var_init()
  ret void
}


!llvm.module.flags = !{!0}
!llvm.ident = !{!1}

!0 = !{i32 1, !"wchar_size", i32 4}
!1 = !{!"clang version 10.0.0-4ubuntu1 "}
